target datalayout = "e-m:e-p270:32:32-p271:32:32-p272:64:64-i64:64-i128:128-f80:128-n8:16:32:64-S128"
target triple = "x86_64-pc-linux-gnu"

%struct.cs_sparse = type { i32, i32, i32, ptr, ptr, ptr, i32 }

; Function Attrs: nounwind uwtable
define i32 @cs_utsolve(ptr noundef %0, ptr noundef %1) #0 {
  %3 = alloca i32, align 4
  %4 = alloca ptr, align 8
  %5 = alloca ptr, align 8
  %6 = alloca i32, align 4
  %7 = alloca i32, align 4
  %8 = alloca i32, align 4
  %9 = alloca ptr, align 8
  %10 = alloca ptr, align 8
  %11 = alloca ptr, align 8
  store ptr %0, ptr %4, align 8
  store ptr %1, ptr %5, align 8
  %12 = load ptr, ptr %4, align 8
  %13 = icmp ne ptr %12, null
  br i1 %13, label %14, label %22

14:                                               ; preds = %2
  %15 = load ptr, ptr %4, align 8
  %16 = getelementptr inbounds %struct.cs_sparse, ptr %15, i32 0, i32 6
  %17 = load i32, ptr %16, align 8
  %18 = icmp eq i32 %17, -1
  br i1 %18, label %19, label %22

19:                                               ; preds = %14
  %20 = load ptr, ptr %5, align 8
  %21 = icmp ne ptr %20, null
  br i1 %21, label %23, label %22

22:                                               ; preds = %19, %14, %2
  store i32 0, ptr %3, align 4
  br label %103

23:                                               ; preds = %19
  %24 = load ptr, ptr %4, align 8
  %25 = getelementptr inbounds %struct.cs_sparse, ptr %24, i32 0, i32 2
  %26 = load i32, ptr %25, align 8
  store i32 %26, ptr %8, align 4
  %27 = load ptr, ptr %4, align 8
  %28 = getelementptr inbounds %struct.cs_sparse, ptr %27, i32 0, i32 3
  %29 = load ptr, ptr %28, align 8
  store ptr %29, ptr %9, align 8
  %30 = load ptr, ptr %4, align 8
  %31 = getelementptr inbounds %struct.cs_sparse, ptr %30, i32 0, i32 4
  %32 = load ptr, ptr %31, align 8
  store ptr %32, ptr %10, align 8
  %33 = load ptr, ptr %4, align 8
  %34 = getelementptr inbounds %struct.cs_sparse, ptr %33, i32 0, i32 5
  %35 = load ptr, ptr %34, align 8
  store ptr %35, ptr %11, align 8
  store i32 0, ptr %7, align 4
  br label %36

36:                                               ; preds = %99, %23
  %37 = load i32, ptr %7, align 4
  %38 = load i32, ptr %8, align 4
  %39 = icmp slt i32 %37, %38
  br i1 %39, label %40, label %102

40:                                               ; preds = %36
  %41 = load ptr, ptr %9, align 8
  %42 = load i32, ptr %7, align 4
  %43 = sext i32 %42 to i64
  %44 = getelementptr inbounds i32, ptr %41, i64 %43
  %45 = load i32, ptr %44, align 4
  store i32 %45, ptr %6, align 4
  br label %46

46:                                               ; preds = %78, %40
  %47 = load i32, ptr %6, align 4
  %48 = load ptr, ptr %9, align 8
  %49 = load i32, ptr %7, align 4
  %50 = add nsw i32 %49, 1
  %51 = sext i32 %50 to i64
  %52 = getelementptr inbounds i32, ptr %48, i64 %51
  %53 = load i32, ptr %52, align 4
  %54 = sub nsw i32 %53, 1
  %55 = icmp slt i32 %47, %54
  br i1 %55, label %56, label %81

56:                                               ; preds = %46
  %57 = load ptr, ptr %11, align 8
  %58 = load i32, ptr %6, align 4
  %59 = sext i32 %58 to i64
  %60 = getelementptr inbounds double, ptr %57, i64 %59
  %61 = load double, ptr %60, align 8
  %62 = load ptr, ptr %5, align 8
  %63 = load ptr, ptr %10, align 8
  %64 = load i32, ptr %6, align 4
  %65 = sext i32 %64 to i64
  %66 = getelementptr inbounds i32, ptr %63, i64 %65
  %67 = load i32, ptr %66, align 4
  %68 = sext i32 %67 to i64
  %69 = getelementptr inbounds double, ptr %62, i64 %68
  %70 = load double, ptr %69, align 8
  %71 = load ptr, ptr %5, align 8
  %72 = load i32, ptr %7, align 4
  %73 = sext i32 %72 to i64
  %74 = getelementptr inbounds double, ptr %71, i64 %73
  %75 = load double, ptr %74, align 8
  %76 = fneg double %61
  %77 = call double @llvm.fmuladd.f64(double %76, double %70, double %75)
  store double %77, ptr %74, align 8
  br label %78

78:                                               ; preds = %56
  %79 = load i32, ptr %6, align 4
  %80 = add nsw i32 %79, 1
  store i32 %80, ptr %6, align 4
  br label %46, !llvm.loop !4

81:                                               ; preds = %46
  %82 = load ptr, ptr %11, align 8
  %83 = load ptr, ptr %9, align 8
  %84 = load i32, ptr %7, align 4
  %85 = add nsw i32 %84, 1
  %86 = sext i32 %85 to i64
  %87 = getelementptr inbounds i32, ptr %83, i64 %86
  %88 = load i32, ptr %87, align 4
  %89 = sub nsw i32 %88, 1
  %90 = sext i32 %89 to i64
  %91 = getelementptr inbounds double, ptr %82, i64 %90
  %92 = load double, ptr %91, align 8
  %93 = load ptr, ptr %5, align 8
  %94 = load i32, ptr %7, align 4
  %95 = sext i32 %94 to i64
  %96 = getelementptr inbounds double, ptr %93, i64 %95
  %97 = load double, ptr %96, align 8
  %98 = fdiv double %97, %92
  store double %98, ptr %96, align 8
  br label %99

99:                                               ; preds = %81
  %100 = load i32, ptr %7, align 4
  %101 = add nsw i32 %100, 1
  store i32 %101, ptr %7, align 4
  br label %36, !llvm.loop !6

102:                                              ; preds = %36
  store i32 1, ptr %3, align 4
  br label %103

103:                                              ; preds = %102, %22
  %104 = load i32, ptr %3, align 4
  ret i32 %104
}

; Function Attrs: nocallback nofree nosync nounwind speculatable willreturn memory(none)
declare double @llvm.fmuladd.f64(double, double, double) #1


!llvm.module.flags = !{!0, !1, !2, !3}

!0 = !{i32 1, !"wchar_size", i32 4}
!1 = !{i32 8, !"PIC Level", i32 2}
!2 = !{i32 7, !"uwtable", i32 2}
!3 = !{i32 7, !"frame-pointer", i32 2}
!4 = distinct !{!4, !5}
!5 = !{!"llvm.loop.mustprogress"}
!6 = distinct !{!6, !5}
